target datalayout = "e-m:e-p270:32:32-p271:32:32-p272:64:64-i64:64-i128:128-f80:128-n8:16:32:64-S128"
target triple = "x86_64-pc-linux-gnu"

%struct.__va_list_tag = type { i32, i32, ptr, ptr }
%struct._GString = type { ptr, i64, i64 }

; Function Attrs: inlinehint nounwind sspstrong uwtable
define internal void @glib_autoptr_clear_GRegex(ptr noundef %0) #6 {
  %2 = alloca ptr, align 8
  store ptr %0, ptr %2, align 8
  %3 = load ptr, ptr %2, align 8
  %4 = icmp ne ptr %3, null
  br i1 %4, label %5, label %7

5:                                                ; preds = %1
  %6 = load ptr, ptr %2, align 8
  call void @g_regex_unref(ptr noundef %6)
  br label %7

7:                                                ; preds = %5, %1
  ret void
}

; Function Attrs: inlinehint nounwind sspstrong uwtable
define internal void @glib_autoptr_cleanup_GRegex(ptr noundef %0) #6 {
  %2 = alloca ptr, align 8
  store ptr %0, ptr %2, align 8
  %3 = load ptr, ptr %2, align 8
  %4 = load ptr, ptr %3, align 8
  call void @glib_autoptr_clear_GRegex(ptr noundef %4)
  ret void
}

; Function Attrs: inlinehint nounwind sspstrong uwtable
define internal void @g_autoptr_cleanup_generic_gfree(ptr noundef %0) #6 {
  %2 = alloca ptr, align 8
  %3 = alloca ptr, align 8
  store ptr %0, ptr %2, align 8
  call void @llvm.lifetime.start.p0(i64 8, ptr %3) #14
  %4 = load ptr, ptr %2, align 8
  store ptr %4, ptr %3, align 8
  %5 = load ptr, ptr %3, align 8
  %6 = load ptr, ptr %5, align 8
  call void @g_free(ptr noundef %6)
  call void @llvm.lifetime.end.p0(i64 8, ptr %3) #14
  ret void
}

; Function Attrs: nounwind sspstrong uwtable
define internal void @regex_replace(ptr noundef %0, ptr noundef %1, ptr noundef %2, ...) #0 {
  %4 = alloca ptr, align 8
  %5 = alloca ptr, align 8
  %6 = alloca ptr, align 8
  %7 = alloca ptr, align 8
  %8 = alloca ptr, align 8
  %9 = alloca ptr, align 8
  %10 = alloca [1 x %struct.__va_list_tag], align 16
  store ptr %0, ptr %4, align 8
  store ptr %1, ptr %5, align 8
  store ptr %2, ptr %6, align 8
  call void @llvm.lifetime.start.p0(i64 8, ptr %7) #14
  store ptr null, ptr %7, align 8
  call void @llvm.lifetime.start.p0(i64 8, ptr %8) #14
  store ptr null, ptr %8, align 8
  call void @llvm.lifetime.start.p0(i64 8, ptr %9) #14
  store ptr null, ptr %9, align 8
  call void @llvm.lifetime.start.p0(i64 24, ptr %10) #14
  call void @llvm.memset.p0.i64(ptr align 16 %10, i8 0, i64 24, i1 false), !annotation !4
  %11 = getelementptr inbounds [1 x %struct.__va_list_tag], ptr %10, i64 0, i64 0
  call void @llvm.va_start.p0(ptr %11)
  %12 = load ptr, ptr %6, align 8
  %13 = getelementptr inbounds [1 x %struct.__va_list_tag], ptr %10, i64 0, i64 0
  %14 = call noalias ptr @g_strdup_vprintf(ptr noundef %12, ptr noundef %13)
  store ptr %14, ptr %8, align 8
  %15 = getelementptr inbounds [1 x %struct.__va_list_tag], ptr %10, i64 0, i64 0
  call void @llvm.va_end.p0(ptr %15)
  %16 = load ptr, ptr %5, align 8
  %17 = call ptr @g_regex_new(ptr noundef %16, i32 noundef 0, i32 noundef 0, ptr noundef null)
  store ptr %17, ptr %7, align 8
  %18 = load ptr, ptr %7, align 8
  %19 = load ptr, ptr %4, align 8
  %20 = getelementptr inbounds nuw %struct._GString, ptr %19, i32 0, i32 0
  %21 = load ptr, ptr %20, align 8
  %22 = load ptr, ptr %8, align 8
  %23 = call ptr @g_regex_replace(ptr noundef %18, ptr noundef %21, i64 noundef -1, i32 noundef 0, ptr noundef %22, i32 noundef 0, ptr noundef null)
  store ptr %23, ptr %9, align 8
  %24 = load ptr, ptr %4, align 8
  %25 = load ptr, ptr %9, align 8
  %26 = call ptr @g_string_assign(ptr noundef %24, ptr noundef %25)
  call void @llvm.lifetime.end.p0(i64 24, ptr %10) #14
  call void @g_autoptr_cleanup_generic_gfree(ptr noundef %9)
  call void @llvm.lifetime.end.p0(i64 8, ptr %9) #14
  call void @g_autoptr_cleanup_generic_gfree(ptr noundef %8)
  call void @llvm.lifetime.end.p0(i64 8, ptr %8) #14
  call void @glib_autoptr_cleanup_GRegex(ptr noundef %7)
  call void @llvm.lifetime.end.p0(i64 8, ptr %7) #14
  ret void
}