; Function Attrs: nounwind sspstrong uwtable
define internal void @regex_replace(ptr noundef %0, ptr noundef %1, ptr noundef %2, ...) unnamed_addr #0 {
  %4 = alloca [1 x %struct.__va_list_tag], align 16
  call void @llvm.lifetime.start.p0(i64 24, ptr nonnull %4) #13
  call void @llvm.memset.p0.i64(ptr noundef nonnull align 16 dereferenceable(24) %4, i8 0, i64 24, i1 false), !annotation !5
  call void @llvm.va_start.p0(ptr nonnull %4)
  %5 = call noalias ptr @g_strdup_vprintf(ptr noundef %2, ptr noundef nonnull %4) #13
  call void @llvm.va_end.p0(ptr nonnull %4)
  %6 = call ptr @g_regex_new(ptr noundef %1, i32 noundef 0, i32 noundef 0, ptr noundef null) #13
  %7 = load ptr, ptr %0, align 8
  %8 = call ptr @g_regex_replace(ptr noundef %6, ptr noundef %7, i64 noundef -1, i32 noundef 0, ptr noundef %5, i32 noundef 0, ptr noundef null) #13
  %9 = call ptr @g_string_assign(ptr noundef nonnull %0, ptr noundef %8) #13
  call void @llvm.lifetime.end.p0(i64 24, ptr nonnull %4) #13
  call void @g_free(ptr noundef %8) #13
  call void @g_free(ptr noundef %5) #13
  %.not.i.i = icmp eq ptr %6, null
  br i1 %.not.i.i, label %glib_autoptr_cleanup_GRegex.exit, label %10

10:                                               ; preds = %3
  call void @g_regex_unref(ptr noundef nonnull %6) #13
  br label %glib_autoptr_cleanup_GRegex.exit

glib_autoptr_cleanup_GRegex.exit:                 ; preds = %3, %10
  ret void
}